; Function Attrs: nounwind uwtable
define void @If_DsdManCollect_rec(ptr noundef readonly captures(none) %0, i32 noundef %1, ptr noundef captures(none) %2, ptr noundef captures(none) %3, ptr noundef captures(none) %4) local_unnamed_addr #4 {
  %6 = getelementptr i8, ptr %0, i64 48
  %.val = load ptr, ptr %6, align 8, !tbaa !23
  %7 = sext i32 %1 to i64
  %8 = getelementptr inbounds ptr, ptr %.val, i64 %7
  %9 = load ptr, ptr %8, align 8, !tbaa !24
  %10 = getelementptr i8, ptr %9, i64 4
  %.val21 = load i32, ptr %10, align 4
  %11 = and i32 %.val21, 7
  switch i32 %11, label %15 [
    i32 1, label %87
    i32 2, label %12
  ]

12:                                               ; preds = %5
  %13 = load i32, ptr %4, align 4, !tbaa !40
  %14 = add nsw i32 %13, 1
  store i32 %14, ptr %4, align 4, !tbaa !40
  br label %87

15:                                               ; preds = %5
  %16 = load i32, ptr %4, align 4, !tbaa !40
  %17 = getelementptr inbounds nuw i8, ptr %9, i64 8
  %.not33 = icmp ult i32 %.val21, 134217728
  br i1 %.not33, label %.critedge, label %.lr.ph

.lr.ph:                                           ; preds = %15, %20
  %indvars.iv = phi i64 [ %indvars.iv.next, %20 ], [ 0, %15 ]
  %18 = getelementptr inbounds nuw [0 x i32], ptr %17, i64 0, i64 %indvars.iv
  %19 = load i32, ptr %18, align 4, !tbaa !40
  %.not = icmp eq i32 %19, 0
  br i1 %.not, label %.critedge, label %20

20:                                               ; preds = %.lr.ph
  %21 = ashr i32 %19, 1
  tail call void @If_DsdManCollect_rec(ptr noundef %0, i32 noundef %21, ptr noundef %2, ptr noundef %3, ptr noundef nonnull %4)
  %indvars.iv.next = add nuw nsw i64 %indvars.iv, 1
  %.val22 = load i32, ptr %10, align 4
  %22 = lshr i32 %.val22, 27
  %23 = zext nneg i32 %22 to i64
  %24 = icmp samesign ult i64 %indvars.iv.next, %23
  br i1 %24, label %.lr.ph, label %.critedge, !llvm.loop !193

.critedge:                                        ; preds = %.lr.ph, %20, %15
  %25 = getelementptr inbounds nuw i8, ptr %2, i64 4
  %26 = load i32, ptr %25, align 4, !tbaa !37
  %27 = load i32, ptr %2, align 8, !tbaa !38
  %28 = icmp eq i32 %26, %27
  br i1 %28, label %29, label %.Vec_IntGrow.exit10_crit_edge.i

.Vec_IntGrow.exit10_crit_edge.i:                  ; preds = %.critedge
  %.phi.trans.insert.i = getelementptr inbounds nuw i8, ptr %2, i64 8
  %.pre.i = load ptr, ptr %.phi.trans.insert.i, align 8, !tbaa !39
  br label %Vec_IntPush.exit

29:                                               ; preds = %.critedge
  %30 = icmp slt i32 %26, 16
  br i1 %30, label %31, label %39

31:                                               ; preds = %29
  %32 = getelementptr inbounds nuw i8, ptr %2, i64 8
  %33 = load ptr, ptr %32, align 8, !tbaa !39
  %.not9.i.i = icmp eq ptr %33, null
  br i1 %.not9.i.i, label %36, label %34

34:                                               ; preds = %31
  %35 = tail call dereferenceable_or_null(64) ptr @realloc(ptr noundef nonnull %33, i64 noundef 64) #40
  br label %Vec_IntGrow.exit.i

36:                                               ; preds = %31
  %37 = tail call noalias dereferenceable_or_null(64) ptr @malloc(i64 noundef 64) #41
  br label %Vec_IntGrow.exit.i

Vec_IntGrow.exit.i:                               ; preds = %36, %34
  %38 = phi ptr [ %35, %34 ], [ %37, %36 ]
  store ptr %38, ptr %32, align 8, !tbaa !39
  store i32 16, ptr %2, align 8, !tbaa !38
  br label %Vec_IntPush.exit

39:                                               ; preds = %29
  %40 = shl nuw nsw i32 %26, 1
  %41 = getelementptr inbounds nuw i8, ptr %2, i64 8
  %42 = load ptr, ptr %41, align 8, !tbaa !39
  %.not9.i9.i = icmp eq ptr %42, null
  %43 = zext nneg i32 %40 to i64
  %44 = shl nuw nsw i64 %43, 2
  br i1 %.not9.i9.i, label %47, label %45

45:                                               ; preds = %39
  %46 = tail call ptr @realloc(ptr noundef nonnull %42, i64 noundef %44) #40
  br label %49

47:                                               ; preds = %39
  %48 = tail call noalias ptr @malloc(i64 noundef %44) #41
  br label %49

49:                                               ; preds = %47, %45
  %50 = phi ptr [ %46, %45 ], [ %48, %47 ]
  store ptr %50, ptr %41, align 8, !tbaa !39
  store i32 %40, ptr %2, align 8, !tbaa !38
  br label %Vec_IntPush.exit

Vec_IntPush.exit:                                 ; preds = %.Vec_IntGrow.exit10_crit_edge.i, %Vec_IntGrow.exit.i, %49
  %51 = phi ptr [ %.pre.i, %.Vec_IntGrow.exit10_crit_edge.i ], [ %50, %49 ], [ %38, %Vec_IntGrow.exit.i ]
  %52 = load i32, ptr %25, align 4, !tbaa !37
  %53 = add nsw i32 %52, 1
  store i32 %53, ptr %25, align 4, !tbaa !37
  %54 = sext i32 %52 to i64
  %55 = getelementptr inbounds i32, ptr %51, i64 %54
  store i32 %1, ptr %55, align 4, !tbaa !40
  %56 = getelementptr inbounds nuw i8, ptr %3, i64 4
  %57 = load i32, ptr %56, align 4, !tbaa !37
  %58 = load i32, ptr %3, align 8, !tbaa !38
  %59 = icmp eq i32 %57, %58
  br i1 %59, label %60, label %.Vec_IntGrow.exit10_crit_edge.i23

.Vec_IntGrow.exit10_crit_edge.i23:                ; preds = %Vec_IntPush.exit
  %.phi.trans.insert.i24 = getelementptr inbounds nuw i8, ptr %3, i64 8
  %.pre.i25 = load ptr, ptr %.phi.trans.insert.i24, align 8, !tbaa !39
  br label %Vec_IntPush.exit29

60:                                               ; preds = %Vec_IntPush.exit
  %61 = icmp slt i32 %57, 16
  br i1 %61, label %62, label %70

62:                                               ; preds = %60
  %63 = getelementptr inbounds nuw i8, ptr %3, i64 8
  %64 = load ptr, ptr %63, align 8, !tbaa !39
  %.not9.i.i27 = icmp eq ptr %64, null
  br i1 %.not9.i.i27, label %67, label %65

65:                                               ; preds = %62
  %66 = tail call dereferenceable_or_null(64) ptr @realloc(ptr noundef nonnull %64, i64 noundef 64) #40
  br label %Vec_IntGrow.exit.i28

67:                                               ; preds = %62
  %68 = tail call noalias dereferenceable_or_null(64) ptr @malloc(i64 noundef 64) #41
  br label %Vec_IntGrow.exit.i28

Vec_IntGrow.exit.i28:                             ; preds = %67, %65
  %69 = phi ptr [ %66, %65 ], [ %68, %67 ]
  store ptr %69, ptr %63, align 8, !tbaa !39
  store i32 16, ptr %3, align 8, !tbaa !38
  br label %Vec_IntPush.exit29

70:                                               ; preds = %60
  %71 = shl nuw nsw i32 %57, 1
  %72 = getelementptr inbounds nuw i8, ptr %3, i64 8
  %73 = load ptr, ptr %72, align 8, !tbaa !39
  %.not9.i9.i26 = icmp eq ptr %73, null
  %74 = zext nneg i32 %71 to i64
  %75 = shl nuw nsw i64 %74, 2
  br i1 %.not9.i9.i26, label %78, label %76

76:                                               ; preds = %70
  %77 = tail call ptr @realloc(ptr noundef nonnull %73, i64 noundef %75) #40
  br label %80

78:                                               ; preds = %70
  %79 = tail call noalias ptr @malloc(i64 noundef %75) #41
  br label %80

80:                                               ; preds = %78, %76
  %81 = phi ptr [ %77, %76 ], [ %79, %78 ]
  store ptr %81, ptr %72, align 8, !tbaa !39
  store i32 %71, ptr %3, align 8, !tbaa !38
  br label %Vec_IntPush.exit29

Vec_IntPush.exit29:                               ; preds = %.Vec_IntGrow.exit10_crit_edge.i23, %Vec_IntGrow.exit.i28, %80
  %82 = phi ptr [ %.pre.i25, %.Vec_IntGrow.exit10_crit_edge.i23 ], [ %81, %80 ], [ %69, %Vec_IntGrow.exit.i28 ]
  %83 = load i32, ptr %56, align 4, !tbaa !37
  %84 = add nsw i32 %83, 1
  store i32 %84, ptr %56, align 4, !tbaa !37
  %85 = sext i32 %83 to i64
  %86 = getelementptr inbounds i32, ptr %82, i64 %85
  store i32 %16, ptr %86, align 4, !tbaa !40
  br label %87

87:                                               ; preds = %5, %Vec_IntPush.exit29, %12
  ret void
}